; ModuleID = '29/470.c'
source_filename = "29/470.c"
target datalayout = "e-m:e-p270:32:32-p271:32:32-p272:64:64-i64:64-f80:128-n8:16:32:64-S128"
target triple = "x86_64-pc-linux-gnu"

@.str = private unnamed_addr constant [3 x i8] c"%d\00", align 1
@.str.1 = private unnamed_addr constant [7 x i8] c"%.3lf\0A\00", align 1

; Function Attrs: noinline nounwind uwtable
define dso_local i32 @main() #0 {
  %1 = alloca i32, align 4
  %2 = alloca i32, align 4
  %3 = alloca i32, align 4
  %4 = alloca [100 x i32], align 16
  %5 = alloca [100 x double], align 16
  %6 = alloca [100 x double], align 16
  %7 = alloca i32, align 4
  %8 = alloca i32, align 4
  store i32 0, i32* %1, align 4
  store i32 0, i32* %7, align 4
  br label %9

9:                                                ; preds = %16, %0
  %10 = load i32, i32* %7, align 4
  %11 = icmp slt i32 %10, 100
  br i1 %11, label %12, label %19

12:                                               ; preds = %9
  %13 = load i32, i32* %7, align 4
  %14 = sext i32 %13 to i64
  %15 = getelementptr inbounds [100 x double], [100 x double]* %6, i64 0, i64 %14
  store double 0.000000e+00, double* %15, align 8
  br label %16

16:                                               ; preds = %12
  %17 = load i32, i32* %7, align 4
  %18 = add nsw i32 %17, 1
  store i32 %18, i32* %7, align 4
  br label %9

19:                                               ; preds = %9
  %20 = getelementptr inbounds [100 x i32], [100 x i32]* %4, i64 0, i64 0
  store i32 1, i32* %20, align 16
  %21 = getelementptr inbounds [100 x i32], [100 x i32]* %4, i64 0, i64 1
  store i32 2, i32* %21, align 4
  store i32 2, i32* %7, align 4
  br label %22

22:                                               ; preds = %40, %19
  %23 = load i32, i32* %7, align 4
  %24 = icmp slt i32 %23, 100
  br i1 %24, label %25, label %43

25:                                               ; preds = %22
  %26 = load i32, i32* %7, align 4
  %27 = sub nsw i32 %26, 1
  %28 = sext i32 %27 to i64
  %29 = getelementptr inbounds [100 x i32], [100 x i32]* %4, i64 0, i64 %28
  %30 = load i32, i32* %29, align 4
  %31 = load i32, i32* %7, align 4
  %32 = sub nsw i32 %31, 2
  %33 = sext i32 %32 to i64
  %34 = getelementptr inbounds [100 x i32], [100 x i32]* %4, i64 0, i64 %33
  %35 = load i32, i32* %34, align 4
  %36 = add nsw i32 %30, %35
  %37 = load i32, i32* %7, align 4
  %38 = sext i32 %37 to i64
  %39 = getelementptr inbounds [100 x i32], [100 x i32]* %4, i64 0, i64 %38
  store i32 %36, i32* %39, align 4
  br label %40

40:                                               ; preds = %25
  %41 = load i32, i32* %7, align 4
  %42 = add nsw i32 %41, 1
  store i32 %42, i32* %7, align 4
  br label %22

43:                                               ; preds = %22
  store i32 0, i32* %7, align 4
  br label %44

44:                                               ; preds = %64, %43
  %45 = load i32, i32* %7, align 4
  %46 = icmp slt i32 %45, 99
  br i1 %46, label %47, label %67

47:                                               ; preds = %44
  %48 = load i32, i32* %7, align 4
  %49 = add nsw i32 %48, 1
  %50 = sext i32 %49 to i64
  %51 = getelementptr inbounds [100 x i32], [100 x i32]* %4, i64 0, i64 %50
  %52 = load i32, i32* %51, align 4
  %53 = sitofp i32 %52 to double
  %54 = fmul double %53, 1.000000e+00
  %55 = load i32, i32* %7, align 4
  %56 = sext i32 %55 to i64
  %57 = getelementptr inbounds [100 x i32], [100 x i32]* %4, i64 0, i64 %56
  %58 = load i32, i32* %57, align 4
  %59 = sitofp i32 %58 to double
  %60 = fdiv double %54, %59
  %61 = load i32, i32* %7, align 4
  %62 = sext i32 %61 to i64
  %63 = getelementptr inbounds [100 x double], [100 x double]* %5, i64 0, i64 %62
  store double %60, double* %63, align 8
  br label %64

64:                                               ; preds = %47
  %65 = load i32, i32* %7, align 4
  %66 = add nsw i32 %65, 1
  store i32 %66, i32* %7, align 4
  br label %44

67:                                               ; preds = %44
  %68 = call i32 (i8*, ...) @__isoc99_scanf(i8* getelementptr inbounds ([3 x i8], [3 x i8]* @.str, i64 0, i64 0), i32* %2)
  store i32 0, i32* %7, align 4
  br label %69

69:                                               ; preds = %93, %67
  %70 = load i32, i32* %7, align 4
  %71 = load i32, i32* %2, align 4
  %72 = icmp slt i32 %70, %71
  br i1 %72, label %73, label %96

73:                                               ; preds = %69
  %74 = call i32 (i8*, ...) @__isoc99_scanf(i8* getelementptr inbounds ([3 x i8], [3 x i8]* @.str, i64 0, i64 0), i32* %3)
  store i32 0, i32* %8, align 4
  br label %75

75:                                               ; preds = %89, %73
  %76 = load i32, i32* %8, align 4
  %77 = load i32, i32* %3, align 4
  %78 = icmp slt i32 %76, %77
  br i1 %78, label %79, label %92

79:                                               ; preds = %75
  %80 = load i32, i32* %8, align 4
  %81 = sext i32 %80 to i64
  %82 = getelementptr inbounds [100 x double], [100 x double]* %5, i64 0, i64 %81
  %83 = load double, double* %82, align 8
  %84 = load i32, i32* %7, align 4
  %85 = sext i32 %84 to i64
  %86 = getelementptr inbounds [100 x double], [100 x double]* %6, i64 0, i64 %85
  %87 = load double, double* %86, align 8
  %88 = fadd double %87, %83
  store double %88, double* %86, align 8
  br label %89

89:                                               ; preds = %79
  %90 = load i32, i32* %8, align 4
  %91 = add nsw i32 %90, 1
  store i32 %91, i32* %8, align 4
  br label %75

92:                                               ; preds = %75
  br label %93

93:                                               ; preds = %92
  %94 = load i32, i32* %7, align 4
  %95 = add nsw i32 %94, 1
  store i32 %95, i32* %7, align 4
  br label %69

96:                                               ; preds = %69
  store i32 0, i32* %7, align 4
  br label %97

97:                                               ; preds = %107, %96
  %98 = load i32, i32* %7, align 4
  %99 = load i32, i32* %2, align 4
  %100 = icmp slt i32 %98, %99
  br i1 %100, label %101, label %110

101:                                              ; preds = %97
  %102 = load i32, i32* %7, align 4
  %103 = sext i32 %102 to i64
  %104 = getelementptr inbounds [100 x double], [100 x double]* %6, i64 0, i64 %103
  %105 = load double, double* %104, align 8
  %106 = call i32 (i8*, ...) @printf(i8* getelementptr inbounds ([7 x i8], [7 x i8]* @.str.1, i64 0, i64 0), double %105)
  br label %107

107:                                              ; preds = %101
  %108 = load i32, i32* %7, align 4
  %109 = add nsw i32 %108, 1
  store i32 %109, i32* %7, align 4
  br label %97

110:                                              ; preds = %97
  ret i32 0
}

declare dso_local i32 @__isoc99_scanf(i8*, ...) #1

declare dso_local i32 @printf(i8*, ...) #1


!llvm.module.flags = !{!0}
!llvm.ident = !{!1}

!0 = !{i32 1, !"wchar_size", i32 4}
!1 = !{!"clang version 10.0.0-4ubuntu1 "}
